target datalayout = "e-m:e-p270:32:32-p271:32:32-p272:64:64-i64:64-i128:128-f80:128-n8:16:32:64-S128"
target triple = "x86_64-pc-linux-gnu"

%struct._asn1_ctx_t = type { i32, i32, i8, ptr, ptr, ptr, ptr, ptr, %struct.anon, %struct.anon.2, %struct.anon.3, ptr }
%struct.anon = type { i32, i8, i8, i8, ptr, ptr, i32, i32, ptr, ptr, ptr, %union.anon }
%union.anon = type { %struct.anon.0 }
%struct.anon.0 = type { ptr }
%struct.anon.2 = type { ptr, ptr, ptr }
%struct.anon.3 = type { i32, i8, ptr, i32, i32, ptr, ptr, ptr, %union.anon.4 }
%union.anon.4 = type { %struct.anon.5 }
%struct.anon.5 = type { ptr }
%struct._packet_info = type { ptr, ptr, i32, i32, %struct.nstime_t, %struct.nstime_t, %struct.nstime_t, i8, ptr, ptr, ptr, ptr, %struct._address, %struct._address, %struct._address, %struct._address, %struct._address, %struct._address, i32, ptr, i8, [3 x i8], %struct.anon.7, i32, i32, i32, i32, ptr, i8, ptr, ptr, i16, i16, i32, i32, i16, i32, i32, ptr, ptr, ptr, i8, i8, i16, i16, i16, i32, i16, i16, ptr, ptr, ptr, ptr, ptr, i32, i32 }
%struct.nstime_t = type { i64, i32 }
%struct._address = type { i32, i32, ptr, ptr }
%struct.anon.7 = type { i8, [3 x i8] }
%struct.mms_private_data_t = type { [10 x i8], [1024 x i8] }

@proto_mms = internal global i32 0, align 4
@.str.1542 = private unnamed_addr constant [4 x i8] c" %f\00", align 1

; Function Attrs: null_pointer_is_valid sspstrong uwtable
define internal ptr @mms_get_private_data(ptr noundef %0) #0 {
  %2 = alloca ptr, align 8
  %3 = alloca ptr, align 8
  %4 = alloca ptr, align 8
  %5 = alloca ptr, align 8
  %6 = alloca i32, align 4
  store ptr %0, ptr %3, align 8
  call void @llvm.lifetime.start.p0(i64 8, ptr %4) #8
  %7 = load ptr, ptr %3, align 8
  %8 = getelementptr inbounds nuw %struct._asn1_ctx_t, ptr %7, i32 0, i32 3
  %9 = load ptr, ptr %8, align 8
  store ptr %9, ptr %4, align 8
  call void @llvm.lifetime.start.p0(i64 8, ptr %5) #8
  %10 = load ptr, ptr %4, align 8
  %11 = getelementptr inbounds nuw %struct._packet_info, ptr %10, i32 0, i32 51
  %12 = load ptr, ptr %11, align 8
  %13 = load ptr, ptr %4, align 8
  %14 = load i32, ptr @proto_mms, align 4
  %15 = load ptr, ptr %4, align 8
  %16 = getelementptr inbounds nuw %struct._packet_info, ptr %15, i32 0, i32 41
  %17 = load i8, ptr %16, align 8
  %18 = zext i8 %17 to i32
  %19 = call ptr @p_get_proto_data(ptr noundef %12, ptr noundef %13, i32 noundef %14, i32 noundef %18)
  store ptr %19, ptr %5, align 8
  %20 = load ptr, ptr %5, align 8
  %21 = icmp ne ptr %20, null
  br i1 %21, label %22, label %24

22:                                               ; preds = %1
  %23 = load ptr, ptr %5, align 8
  store ptr %23, ptr %2, align 8
  store i32 1, ptr %6, align 4
  br label %40

24:                                               ; preds = %1
  %25 = load ptr, ptr %4, align 8
  %26 = getelementptr inbounds nuw %struct._packet_info, ptr %25, i32 0, i32 51
  %27 = load ptr, ptr %26, align 8
  %28 = call noalias ptr @wmem_alloc0(ptr noundef %27, i64 noundef 1034) #9
  store ptr %28, ptr %5, align 8
  %29 = load ptr, ptr %4, align 8
  %30 = getelementptr inbounds nuw %struct._packet_info, ptr %29, i32 0, i32 51
  %31 = load ptr, ptr %30, align 8
  %32 = load ptr, ptr %4, align 8
  %33 = load i32, ptr @proto_mms, align 4
  %34 = load ptr, ptr %4, align 8
  %35 = getelementptr inbounds nuw %struct._packet_info, ptr %34, i32 0, i32 41
  %36 = load i8, ptr %35, align 8
  %37 = zext i8 %36 to i32
  %38 = load ptr, ptr %5, align 8
  call void @p_add_proto_data(ptr noundef %31, ptr noundef %32, i32 noundef %33, i32 noundef %37, ptr noundef %38)
  %39 = load ptr, ptr %5, align 8
  store ptr %39, ptr %2, align 8
  store i32 1, ptr %6, align 4
  br label %40

40:                                               ; preds = %24, %22
  call void @llvm.lifetime.end.p0(i64 8, ptr %5) #8
  call void @llvm.lifetime.end.p0(i64 8, ptr %4) #8
  %41 = load ptr, ptr %2, align 8
  ret ptr %41
}

; Function Attrs: null_pointer_is_valid sspstrong uwtable
define internal void @private_data_add_moreCinfo_float(ptr noundef %0, ptr noundef %1) #0 {
  %3 = alloca ptr, align 8
  %4 = alloca ptr, align 8
  %5 = alloca ptr, align 8
  store ptr %0, ptr %3, align 8
  store ptr %1, ptr %4, align 8
  call void @llvm.lifetime.start.p0(i64 8, ptr %5) #8
  %6 = load ptr, ptr %3, align 8
  %7 = call ptr @mms_get_private_data(ptr noundef %6)
  store ptr %7, ptr %5, align 8
  %8 = load ptr, ptr %5, align 8
  %9 = getelementptr inbounds nuw %struct.mms_private_data_t, ptr %8, i32 0, i32 1
  %10 = getelementptr inbounds [1024 x i8], ptr %9, i64 0, i64 0
  %11 = load ptr, ptr %4, align 8
  %12 = call float @tvb_get_ieee_float(ptr noundef %11, i32 noundef 1, i32 noundef 0)
  %13 = fpext float %12 to double
  %14 = call i32 (ptr, i64, i32, i64, ptr, ...) @__snprintf_chk(ptr noundef %10, i64 noundef 1024, i32 noundef 2, i64 noundef 1024, ptr noundef @.str.1542, double noundef %13)
  call void @llvm.lifetime.end.p0(i64 8, ptr %5) #8
  ret void
}

; Function Attrs: null_pointer_is_valid sspstrong uwtable
define internal i32 @dissect_mms_FloatingPoint(i1 noundef zeroext %0, ptr noundef %1, i32 noundef %2, ptr noundef %3, ptr noundef %4, i32 noundef %5) #0 {
  %7 = alloca i8, align 1
  %8 = alloca ptr, align 8
  %9 = alloca i32, align 4
  %10 = alloca ptr, align 8
  %11 = alloca ptr, align 8
  %12 = alloca i32, align 4
  %13 = zext i1 %0 to i8
  store i8 %13, ptr %7, align 1
  store ptr %1, ptr %8, align 8
  store i32 %2, ptr %9, align 4
  store ptr %3, ptr %10, align 8
  store ptr %4, ptr %11, align 8
  store i32 %5, ptr %12, align 4
  %14 = load i8, ptr %7, align 1, !range !6, !noundef !7
  %15 = trunc i8 %14 to i1
  %16 = load ptr, ptr %10, align 8
  %17 = load ptr, ptr %11, align 8
  %18 = load ptr, ptr %8, align 8
  %19 = load i32, ptr %9, align 4
  %20 = load i32, ptr %12, align 4
  %21 = call i32 @dissect_ber_octet_string(i1 noundef zeroext %15, ptr noundef %16, ptr noundef %17, ptr noundef %18, i32 noundef %19, i32 noundef %20, ptr noundef null)
  store i32 %21, ptr %9, align 4
  %22 = load ptr, ptr %10, align 8
  %23 = load ptr, ptr %8, align 8
  call void @private_data_add_moreCinfo_float(ptr noundef %22, ptr noundef %23)
  %24 = load i32, ptr %9, align 4
  ret i32 %24
}