; Function Attrs: null_pointer_is_valid sspstrong uwtable
define internal i32 @dissect_mms_FloatingPoint(i1 noundef zeroext %0, ptr noundef %1, i32 noundef %2, ptr noundef %3, ptr noundef %4, i32 noundef %5) #0 {
  %7 = tail call i32 @dissect_ber_octet_string(i1 noundef zeroext %0, ptr noundef %3, ptr noundef %4, ptr noundef %1, i32 noundef %2, i32 noundef %5, ptr noundef null)
  %8 = getelementptr i8, ptr %3, i64 16
  %.val = load ptr, ptr %8, align 8
  %9 = getelementptr inbounds nuw i8, ptr %.val, i64 408
  %10 = load ptr, ptr %9, align 8
  %11 = load i32, ptr @proto_mms, align 4
  %12 = getelementptr inbounds nuw i8, ptr %.val, i64 376
  %13 = load i8, ptr %12, align 8
  %14 = zext i8 %13 to i32
  %15 = tail call ptr @p_get_proto_data(ptr noundef %10, ptr noundef %.val, i32 noundef %11, i32 noundef %14)
  %.not.i.i = icmp eq ptr %15, null
  br i1 %.not.i.i, label %16, label %private_data_add_moreCinfo_float.exit

16:                                               ; preds = %6
  %17 = load ptr, ptr %9, align 8
  %18 = tail call noalias dereferenceable_or_null(1034) ptr @wmem_alloc0(ptr noundef %17, i64 noundef 1034) #9
  %19 = load ptr, ptr %9, align 8
  %20 = load i32, ptr @proto_mms, align 4
  %21 = load i8, ptr %12, align 8
  %22 = zext i8 %21 to i32
  tail call void @p_add_proto_data(ptr noundef %19, ptr noundef %.val, i32 noundef %20, i32 noundef %22, ptr noundef %18)
  br label %private_data_add_moreCinfo_float.exit

private_data_add_moreCinfo_float.exit:            ; preds = %6, %16
  %.0.i.i = phi ptr [ %18, %16 ], [ %15, %6 ]
  %23 = getelementptr inbounds nuw i8, ptr %.0.i.i, i64 10
  %24 = tail call float @tvb_get_ieee_float(ptr noundef %1, i32 noundef 1, i32 noundef 0)
  %25 = fpext float %24 to double
  %26 = tail call i32 (ptr, i64, i32, i64, ptr, ...) @__snprintf_chk(ptr noundef nonnull %23, i64 noundef 1024, i32 noundef 2, i64 noundef 1024, ptr noundef nonnull @.str.1542, double noundef %25)
  ret i32 %7
}